target datalayout = "e-m:e-p270:32:32-p271:32:32-p272:64:64-i64:64-i128:128-f80:128-n8:16:32:64-S128"
target triple = "x86_64-unknown-linux-gnu"

%struct.PlatformBusDevice = type { %struct.SysBusDevice, i32, %struct.MemoryRegion, i32, ptr, ptr }
%struct.SysBusDevice = type { %struct.DeviceState, i32, [32 x %struct.anon], i32, [32 x i32] }
%struct.DeviceState = type { %struct.Object, ptr, ptr, i8, i8, i64, ptr, i32, i8, ptr, %struct.NamedGPIOListHead, %struct.NamedClockListHead, %struct.BusStateHead, i32, i32, i32, %struct.ResettableState, ptr, %struct.MemReentrancyGuard }
%struct.Object = type { ptr, ptr, ptr, i32, ptr }
%struct.NamedGPIOListHead = type { ptr }
%struct.NamedClockListHead = type { ptr }
%struct.BusStateHead = type { ptr }
%struct.ResettableState = type { i32, i8, i8 }
%struct.MemReentrancyGuard = type { i8 }
%struct.anon = type { i64, ptr }
%struct.MemoryRegion = type { %struct.Object, i8, i8, i8, i8, i8, i8, i8, i8, i8, i8, ptr, ptr, ptr, ptr, ptr, ptr, i32, i128, i64, ptr, i64, i8, i8, i8, i8, i8, ptr, i64, i32, %union.anon, %union.anon.0, %union.anon.1, ptr, i32, ptr, ptr, i8 }
%union.anon = type { %struct.QTailQLink }
%struct.QTailQLink = type { ptr, ptr }
%union.anon.0 = type { %struct.QTailQLink }
%union.anon.1 = type { %struct.QTailQLink }
%struct.MemoryRegionSection = type { i128, ptr, ptr, i64, i64, i8, i8, i8 }

@.str.2 = private unnamed_addr constant [35 x i8] c"Platform Bus: Can not fit IRQ line\00", align 1
@.str.3 = private unnamed_addr constant [50 x i8] c"Platform Bus: Can not fit MMIO region of size %lx\00", align 1

; Function Attrs: nounwind sspstrong uwtable
define internal i32 @clz64(i64 noundef %val) #0 {
entry:
  %val.addr = alloca i64, align 8
  store i64 %val, ptr %val.addr, align 8
  %0 = load i64, ptr %val.addr, align 8
  %tobool = icmp ne i64 %0, 0
  br i1 %tobool, label %cond.true, label %cond.false

cond.true:                                        ; preds = %entry
  %1 = load i64, ptr %val.addr, align 8
  %2 = call i64 @llvm.ctlz.i64(i64 %1, i1 true)
  %cast = trunc i64 %2 to i32
  br label %cond.end

cond.false:                                       ; preds = %entry
  br label %cond.end

cond.end:                                         ; preds = %cond.false, %cond.true
  %cond = phi i32 [ %cast, %cond.true ], [ 64, %cond.false ]
  ret i32 %cond
}

; Function Attrs: nounwind sspstrong uwtable
define internal void @set_bit(i64 noundef %nr, ptr noundef %addr) #0 {
entry:
  %nr.addr = alloca i64, align 8
  %addr.addr = alloca ptr, align 8
  %mask = alloca i64, align 8
  %p = alloca ptr, align 8
  store i64 %nr, ptr %nr.addr, align 8
  store ptr %addr, ptr %addr.addr, align 8
  %0 = load i64, ptr %nr.addr, align 8
  %rem = urem i64 %0, 64
  %shl = shl i64 1, %rem
  store i64 %shl, ptr %mask, align 8
  %1 = load ptr, ptr %addr.addr, align 8
  %2 = load i64, ptr %nr.addr, align 8
  %div = udiv i64 %2, 64
  %add.ptr = getelementptr i64, ptr %1, i64 %div
  store ptr %add.ptr, ptr %p, align 8
  %3 = load i64, ptr %mask, align 8
  %4 = load ptr, ptr %p, align 8
  %5 = load i64, ptr %4, align 8
  %or = or i64 %5, %3
  store i64 %or, ptr %4, align 8
  ret void
}

; Function Attrs: nounwind sspstrong uwtable
define internal i64 @find_first_zero_bit(ptr noundef %addr, i64 noundef %size) #0 {
entry:
  %addr.addr = alloca ptr, align 8
  %size.addr = alloca i64, align 8
  store ptr %addr, ptr %addr.addr, align 8
  store i64 %size, ptr %size.addr, align 8
  %0 = load ptr, ptr %addr.addr, align 8
  %1 = load i64, ptr %size.addr, align 8
  %call = call i64 @find_next_zero_bit(ptr noundef %0, i64 noundef %1, i64 noundef 0)
  ret i64 %call
}

; Function Attrs: nounwind sspstrong uwtable
define internal void @platform_bus_map_mmio(ptr noundef %pbus, ptr noundef %sbdev, i32 noundef %n) #0 {
entry:
  %pbus.addr = alloca ptr, align 8
  %sbdev.addr = alloca ptr, align 8
  %n.addr = alloca i32, align 4
  %sbdev_mr = alloca ptr, align 8
  %size = alloca i64, align 8
  %alignment = alloca i64, align 8
  %off = alloca i64, align 8
  %found_region = alloca i8, align 1
  %tmp = alloca %struct.MemoryRegionSection, align 16
  store ptr %pbus, ptr %pbus.addr, align 8
  store ptr %sbdev, ptr %sbdev.addr, align 8
  store i32 %n, ptr %n.addr, align 4
  %0 = load ptr, ptr %sbdev.addr, align 8
  %1 = load i32, ptr %n.addr, align 4
  %call = call ptr @sysbus_mmio_get_region(ptr noundef %0, i32 noundef %1)
  store ptr %call, ptr %sbdev_mr, align 8
  %2 = load ptr, ptr %sbdev_mr, align 8
  %call1 = call i64 @memory_region_size(ptr noundef %2)
  store i64 %call1, ptr %size, align 8
  %3 = load i64, ptr %size, align 8
  %4 = load i64, ptr %size, align 8
  %add = add i64 %3, %4
  %sub = sub i64 %add, 1
  %call2 = call i32 @clz64(i64 noundef %sub)
  %sub3 = sub i32 63, %call2
  %sh_prom = zext i32 %sub3 to i64
  %shl = shl i64 1, %sh_prom
  store i64 %shl, ptr %alignment, align 8
  store i8 0, ptr %found_region, align 1
  %5 = load ptr, ptr %sbdev_mr, align 8
  %call4 = call zeroext i1 @memory_region_is_mapped(ptr noundef %5)
  br i1 %call4, label %if.then, label %if.end

if.then:                                          ; preds = %entry
  br label %return

if.end:                                           ; preds = %entry
  store i64 0, ptr %off, align 8
  br label %for.cond

for.cond:                                         ; preds = %for.inc, %if.end
  %6 = load i64, ptr %off, align 8
  %7 = load ptr, ptr %pbus.addr, align 8
  %mmio_size = getelementptr inbounds %struct.PlatformBusDevice, ptr %7, i32 0, i32 1
  %8 = load i32, ptr %mmio_size, align 16
  %conv = zext i32 %8 to i64
  %cmp = icmp ult i64 %6, %conv
  br i1 %cmp, label %for.body, label %for.end

for.body:                                         ; preds = %for.cond
  %9 = load ptr, ptr %pbus.addr, align 8
  %mmio = getelementptr inbounds %struct.PlatformBusDevice, ptr %9, i32 0, i32 2
  %10 = load i64, ptr %off, align 8
  %11 = load i64, ptr %size, align 8
  call void @memory_region_find(ptr sret(%struct.MemoryRegionSection) align 16 %tmp, ptr noundef %mmio, i64 noundef %10, i64 noundef %11)
  %mr = getelementptr inbounds %struct.MemoryRegionSection, ptr %tmp, i32 0, i32 1
  %12 = load ptr, ptr %mr, align 16
  %tobool = icmp ne ptr %12, null
  br i1 %tobool, label %if.end7, label %if.then6

if.then6:                                         ; preds = %for.body
  store i8 1, ptr %found_region, align 1
  br label %for.end

if.end7:                                          ; preds = %for.body
  br label %for.inc

for.inc:                                          ; preds = %if.end7
  %13 = load i64, ptr %alignment, align 8
  %14 = load i64, ptr %off, align 8
  %add8 = add i64 %14, %13
  store i64 %add8, ptr %off, align 8
  br label %for.cond, !llvm.loop !9

for.end:                                          ; preds = %if.then6, %for.cond
  %15 = load i8, ptr %found_region, align 1
  %tobool9 = trunc i8 %15 to i1
  br i1 %tobool9, label %if.end11, label %if.then10

if.then10:                                        ; preds = %for.end
  %16 = load i64, ptr %size, align 8
  call void (ptr, ...) @error_report(ptr noundef @.str.3, i64 noundef %16)
  call void @exit(i32 noundef 1) #7
  unreachable

if.end11:                                         ; preds = %for.end
  %17 = load ptr, ptr %pbus.addr, align 8
  %mmio12 = getelementptr inbounds %struct.PlatformBusDevice, ptr %17, i32 0, i32 2
  %18 = load i64, ptr %off, align 8
  %19 = load ptr, ptr %sbdev_mr, align 8
  call void @memory_region_add_subregion(ptr noundef %mmio12, i64 noundef %18, ptr noundef %19)
  br label %return

return:                                           ; preds = %if.end11, %if.then
  ret void
}

; Function Attrs: nounwind sspstrong uwtable
define internal void @platform_bus_map_irq(ptr noundef %pbus, ptr noundef %sbdev, i32 noundef %n) #0 {
entry:
  %pbus.addr = alloca ptr, align 8
  %sbdev.addr = alloca ptr, align 8
  %n.addr = alloca i32, align 4
  %max_irqs = alloca i32, align 4
  %irqn = alloca i32, align 4
  store ptr %pbus, ptr %pbus.addr, align 8
  store ptr %sbdev, ptr %sbdev.addr, align 8
  store i32 %n, ptr %n.addr, align 4
  %0 = load ptr, ptr %pbus.addr, align 8
  %num_irqs = getelementptr inbounds %struct.PlatformBusDevice, ptr %0, i32 0, i32 3
  %1 = load i32, ptr %num_irqs, align 16
  store i32 %1, ptr %max_irqs, align 4
  %2 = load ptr, ptr %sbdev.addr, align 8
  %3 = load i32, ptr %n.addr, align 4
  %call = call zeroext i1 @sysbus_is_irq_connected(ptr noundef %2, i32 noundef %3)
  br i1 %call, label %if.then, label %if.end

if.then:                                          ; preds = %entry
  br label %return

if.end:                                           ; preds = %entry
  %4 = load ptr, ptr %pbus.addr, align 8
  %used_irqs = getelementptr inbounds %struct.PlatformBusDevice, ptr %4, i32 0, i32 5
  %5 = load ptr, ptr %used_irqs, align 16
  %6 = load i32, ptr %max_irqs, align 4
  %conv = sext i32 %6 to i64
  %call1 = call i64 @find_first_zero_bit(ptr noundef %5, i64 noundef %conv)
  %conv2 = trunc i64 %call1 to i32
  store i32 %conv2, ptr %irqn, align 4
  %7 = load i32, ptr %irqn, align 4
  %8 = load i32, ptr %max_irqs, align 4
  %cmp = icmp sge i32 %7, %8
  br i1 %cmp, label %if.then4, label %if.end5

if.then4:                                         ; preds = %if.end
  call void (ptr, ...) @error_report(ptr noundef @.str.2)
  call void @exit(i32 noundef 1) #7
  unreachable

if.end5:                                          ; preds = %if.end
  %9 = load i32, ptr %irqn, align 4
  %conv6 = sext i32 %9 to i64
  %10 = load ptr, ptr %pbus.addr, align 8
  %used_irqs7 = getelementptr inbounds %struct.PlatformBusDevice, ptr %10, i32 0, i32 5
  %11 = load ptr, ptr %used_irqs7, align 16
  call void @set_bit(i64 noundef %conv6, ptr noundef %11)
  %12 = load ptr, ptr %sbdev.addr, align 8
  %13 = load i32, ptr %n.addr, align 4
  %14 = load ptr, ptr %pbus.addr, align 8
  %irqs = getelementptr inbounds %struct.PlatformBusDevice, ptr %14, i32 0, i32 4
  %15 = load ptr, ptr %irqs, align 8
  %16 = load i32, ptr %irqn, align 4
  %idxprom = sext i32 %16 to i64
  %arrayidx = getelementptr ptr, ptr %15, i64 %idxprom
  %17 = load ptr, ptr %arrayidx, align 8
  call void @sysbus_connect_irq(ptr noundef %12, i32 noundef %13, ptr noundef %17)
  br label %return

return:                                           ; preds = %if.end5, %if.then
  ret void
}

; Function Attrs: nounwind sspstrong uwtable
define dso_local void @platform_bus_link_device(ptr noundef %pbus, ptr noundef %sbdev) #0 {
entry:
  %pbus.addr = alloca ptr, align 8
  %sbdev.addr = alloca ptr, align 8
  %i = alloca i32, align 4
  store ptr %pbus, ptr %pbus.addr, align 8
  store ptr %sbdev, ptr %sbdev.addr, align 8
  store i32 0, ptr %i, align 4
  br label %for.cond

for.cond:                                         ; preds = %for.inc, %entry
  %0 = load ptr, ptr %sbdev.addr, align 8
  %1 = load i32, ptr %i, align 4
  %call = call zeroext i1 @sysbus_has_irq(ptr noundef %0, i32 noundef %1)
  br i1 %call, label %for.body, label %for.end

for.body:                                         ; preds = %for.cond
  %2 = load ptr, ptr %pbus.addr, align 8
  %3 = load ptr, ptr %sbdev.addr, align 8
  %4 = load i32, ptr %i, align 4
  call void @platform_bus_map_irq(ptr noundef %2, ptr noundef %3, i32 noundef %4)
  br label %for.inc

for.inc:                                          ; preds = %for.body
  %5 = load i32, ptr %i, align 4
  %inc = add i32 %5, 1
  store i32 %inc, ptr %i, align 4
  br label %for.cond, !llvm.loop !7

for.end:                                          ; preds = %for.cond
  store i32 0, ptr %i, align 4
  br label %for.cond1

for.cond1:                                        ; preds = %for.inc4, %for.end
  %6 = load ptr, ptr %sbdev.addr, align 8
  %7 = load i32, ptr %i, align 4
  %call2 = call zeroext i1 @sysbus_has_mmio(ptr noundef %6, i32 noundef %7)
  br i1 %call2, label %for.body3, label %for.end6

for.body3:                                        ; preds = %for.cond1
  %8 = load ptr, ptr %pbus.addr, align 8
  %9 = load ptr, ptr %sbdev.addr, align 8
  %10 = load i32, ptr %i, align 4
  call void @platform_bus_map_mmio(ptr noundef %8, ptr noundef %9, i32 noundef %10)
  br label %for.inc4

for.inc4:                                         ; preds = %for.body3
  %11 = load i32, ptr %i, align 4
  %inc5 = add i32 %11, 1
  store i32 %inc5, ptr %i, align 4
  br label %for.cond1, !llvm.loop !8

for.end6:                                         ; preds = %for.cond1
  ret void
}