; Function Attrs: nounwind sspstrong uwtable
define dso_local void @platform_bus_link_device(ptr noundef %pbus, ptr noundef %sbdev) local_unnamed_addr #0 {
entry:
  %tmp.i = alloca %struct.MemoryRegionSection, align 16
  %call16 = tail call zeroext i1 @sysbus_has_irq(ptr noundef %sbdev, i32 noundef 0) #9
  br i1 %call16, label %for.body.lr.ph, label %for.cond1.preheader

for.body.lr.ph:                                   ; preds = %entry
  %num_irqs.i = getelementptr inbounds nuw i8, ptr %pbus, i64 1104
  %used_irqs.i = getelementptr inbounds nuw i8, ptr %pbus, i64 1120
  %irqs.i = getelementptr inbounds nuw i8, ptr %pbus, i64 1112
  br label %for.body

for.cond1.preheader:                              ; preds = %platform_bus_map_irq.exit, %entry
  %call218 = tail call zeroext i1 @sysbus_has_mmio(ptr noundef %sbdev, i32 noundef 0) #9
  br i1 %call218, label %for.body3.lr.ph, label %for.end6

for.body3.lr.ph:                                  ; preds = %for.cond1.preheader
  %mmio_size.i = getelementptr inbounds nuw i8, ptr %pbus, i64 816
  %mmio.i = getelementptr inbounds nuw i8, ptr %pbus, i64 832
  %mr.i = getelementptr inbounds nuw i8, ptr %tmp.i, i64 16
  br label %for.body3

for.body:                                         ; preds = %for.body.lr.ph, %platform_bus_map_irq.exit
  %i.017 = phi i32 [ 0, %for.body.lr.ph ], [ %inc, %platform_bus_map_irq.exit ]
  %0 = load i32, ptr %num_irqs.i, align 16
  %call.i = tail call zeroext i1 @sysbus_is_irq_connected(ptr noundef %sbdev, i32 noundef %i.017) #9
  br i1 %call.i, label %platform_bus_map_irq.exit, label %if.end.i

if.end.i:                                         ; preds = %for.body
  %1 = load ptr, ptr %used_irqs.i, align 16
  %conv.i = sext i32 %0 to i64
  %call.i.i = tail call i64 @find_next_zero_bit(ptr noundef %1, i64 noundef range(i64 -2147483648, 2147483648) %conv.i, i64 noundef 0) #9
  %conv2.i = trunc i64 %call.i.i to i32
  %cmp.not.i = icmp sgt i32 %0, %conv2.i
  br i1 %cmp.not.i, label %if.end5.i, label %if.then4.i

if.then4.i:                                       ; preds = %if.end.i
  tail call void (ptr, ...) @error_report(ptr noundef nonnull @.str.2) #9
  tail call void @exit(i32 noundef 1) #10
  unreachable

if.end5.i:                                        ; preds = %if.end.i
  %sext.i = shl i64 %call.i.i, 32
  %conv6.i = ashr exact i64 %sext.i, 32
  %2 = load ptr, ptr %used_irqs.i, align 16
  %rem.i.i = and i64 %call.i.i, 63
  %shl.i.i = shl nuw i64 1, %rem.i.i
  %div2.i.i = lshr i64 %conv6.i, 6
  %add.ptr.i.i = getelementptr i64, ptr %2, i64 %div2.i.i
  %3 = load i64, ptr %add.ptr.i.i, align 8
  %or.i.i = or i64 %3, %shl.i.i
  store i64 %or.i.i, ptr %add.ptr.i.i, align 8
  %4 = load ptr, ptr %irqs.i, align 8
  %arrayidx.i = getelementptr ptr, ptr %4, i64 %conv6.i
  %5 = load ptr, ptr %arrayidx.i, align 8
  tail call void @sysbus_connect_irq(ptr noundef %sbdev, i32 noundef %i.017, ptr noundef %5) #9
  br label %platform_bus_map_irq.exit

platform_bus_map_irq.exit:                        ; preds = %for.body, %if.end5.i
  %inc = add i32 %i.017, 1
  %call = tail call zeroext i1 @sysbus_has_irq(ptr noundef %sbdev, i32 noundef %inc) #9
  br i1 %call, label %for.body, label %for.cond1.preheader, !llvm.loop !7

for.body3:                                        ; preds = %for.body3.lr.ph, %platform_bus_map_mmio.exit
  %i.119 = phi i32 [ 0, %for.body3.lr.ph ], [ %inc5, %platform_bus_map_mmio.exit ]
  call void @llvm.lifetime.start.p0(i64 64, ptr nonnull %tmp.i)
  %call.i10 = call ptr @sysbus_mmio_get_region(ptr noundef %sbdev, i32 noundef %i.119) #9
  %call1.i = call i64 @memory_region_size(ptr noundef %call.i10) #9
  %add.i = shl i64 %call1.i, 1
  %sub.i = add i64 %add.i, -1
  %6 = call range(i64 0, 65) i64 @llvm.ctlz.i64(i64 %sub.i, i1 true)
  %sub3.i = xor i64 %6, 63
  %shl.i = shl nuw i64 1, %sub3.i
  %call4.i = call zeroext i1 @memory_region_is_mapped(ptr noundef %call.i10) #9
  br i1 %call4.i, label %platform_bus_map_mmio.exit, label %for.cond.preheader.i

for.cond.preheader.i:                             ; preds = %for.body3
  %7 = load i32, ptr %mmio_size.i, align 16
  %cmp13.not.i = icmp eq i32 %7, 0
  br i1 %cmp13.not.i, label %if.then10.i, label %for.body.i

for.body.i:                                       ; preds = %for.cond.preheader.i, %for.inc.i
  %off.014.i = phi i64 [ %add8.i, %for.inc.i ], [ 0, %for.cond.preheader.i ]
  call void @memory_region_find(ptr nonnull sret(%struct.MemoryRegionSection) align 16 %tmp.i, ptr noundef nonnull %mmio.i, i64 noundef %off.014.i, i64 noundef %call1.i) #9
  %8 = load ptr, ptr %mr.i, align 16
  %tobool.not.i = icmp eq ptr %8, null
  br i1 %tobool.not.i, label %if.end11.i, label %for.inc.i

for.inc.i:                                        ; preds = %for.body.i
  %add8.i = add i64 %off.014.i, %shl.i
  %9 = load i32, ptr %mmio_size.i, align 16
  %conv.i11 = zext i32 %9 to i64
  %cmp.i = icmp ult i64 %add8.i, %conv.i11
  br i1 %cmp.i, label %for.body.i, label %if.then10.i, !llvm.loop !8

if.then10.i:                                      ; preds = %for.cond.preheader.i, %for.inc.i
  call void (ptr, ...) @error_report(ptr noundef nonnull @.str.3, i64 noundef %call1.i) #9
  call void @exit(i32 noundef 1) #10
  unreachable

if.end11.i:                                       ; preds = %for.body.i
  call void @memory_region_add_subregion(ptr noundef nonnull %mmio.i, i64 noundef %off.014.i, ptr noundef %call.i10) #9
  br label %platform_bus_map_mmio.exit

platform_bus_map_mmio.exit:                       ; preds = %for.body3, %if.end11.i
  call void @llvm.lifetime.end.p0(i64 64, ptr nonnull %tmp.i)
  %inc5 = add i32 %i.119, 1
  %call2 = call zeroext i1 @sysbus_has_mmio(ptr noundef %sbdev, i32 noundef %inc5) #9
  br i1 %call2, label %for.body3, label %for.end6, !llvm.loop !9

for.end6:                                         ; preds = %platform_bus_map_mmio.exit, %for.cond1.preheader
  ret void
}